target datalayout = "e-m:e-p270:32:32-p271:32:32-p272:64:64-i64:64-i128:128-f80:128-n8:16:32:64-S128"
target triple = "x86_64-pc-linux-gnu"

%struct.TCGContext = type { ptr, ptr, ptr, ptr, ptr, i32, i32, i32, i32, i32, i32, i32, i8, i8, i8, i32, i32, i64, i64, i64, ptr, ptr, ptr, ptr, ptr, i64, ptr, ptr, ptr, ptr, %struct.anon, ptr, ptr, ptr, ptr, ptr, [6 x ptr], [6 x %struct.TCGTempSet], [512 x %struct.TCGTemp], %union.anon, %union.anon, %struct.anon.0, ptr, [32 x ptr], [512 x i16], ptr, [1 x %struct.__jmp_buf_tag] }
%struct.anon = type { ptr, ptr }
%struct.TCGTempSet = type { [8 x i64] }
%struct.TCGTemp = type { i64, i64, ptr, i64, ptr, i64, ptr }
%union.anon = type { %struct.QTailQLink }
%struct.QTailQLink = type { ptr, ptr }
%struct.anon.0 = type { ptr, ptr }
%struct.__jmp_buf_tag = type { [8 x i64], i32, %struct.__sigset_t }
%struct.__sigset_t = type { [16 x i64] }

@.str.51 = private unnamed_addr constant [104 x i8] c"/home/dtcxzyw/WorkSpace/Projects/compilers/llvm-opt-benchmark/bench/qemu/qemu/tcg/i386/tcg-target.c.inc\00", align 1
@__func__.tcg_out_vex_opc = private unnamed_addr constant [16 x i8] c"tcg_out_vex_opc\00", align 1

; Function Attrs: inlinehint nounwind sspstrong uwtable
define internal void @tcg_out8(ptr noundef %0, i8 noundef zeroext %1) #3 {
  %3 = alloca ptr, align 8
  %4 = alloca i8, align 1
  store ptr %0, ptr %3, align 8
  store i8 %1, ptr %4, align 1
  %5 = load i8, ptr %4, align 1
  %6 = load ptr, ptr %3, align 8
  %7 = getelementptr inbounds nuw %struct.TCGContext, ptr %6, i32 0, i32 23
  %8 = load ptr, ptr %7, align 8
  %9 = getelementptr inbounds nuw i8, ptr %8, i32 1
  store ptr %9, ptr %7, align 8
  store i8 %5, ptr %8, align 1
  ret void
}

; Function Attrs: nounwind sspstrong uwtable
define internal void @tcg_out_vex_opc(ptr noundef %0, i32 noundef %1, i32 noundef %2, i32 noundef %3, i32 noundef %4, i32 noundef %5) #0 {
  %7 = alloca ptr, align 8
  %8 = alloca i32, align 4
  %9 = alloca i32, align 4
  %10 = alloca i32, align 4
  %11 = alloca i32, align 4
  %12 = alloca i32, align 4
  %13 = alloca i32, align 4
  store ptr %0, ptr %7, align 8
  store i32 %1, ptr %8, align 4
  store i32 %2, ptr %9, align 4
  store i32 %3, ptr %10, align 4
  store i32 %4, ptr %11, align 4
  store i32 %5, ptr %12, align 4
  call void @llvm.lifetime.start.p0(i64 4, ptr %13) #19
  store i32 0, ptr %13, align 4, !annotation !4
  %14 = load i32, ptr %8, align 4
  %15 = and i32 %14, 32768
  %16 = icmp ne i32 %15, 0
  br i1 %16, label %17, label %19

17:                                               ; preds = %6
  %18 = load ptr, ptr %7, align 8
  call void @tcg_out8(ptr noundef %18, i8 noundef zeroext 101)
  br label %19

19:                                               ; preds = %17, %6
  %20 = load i32, ptr %8, align 4
  %21 = and i32 %20, 70400
  %22 = icmp eq i32 %21, 256
  br i1 %22, label %23, label %35

23:                                               ; preds = %19
  %24 = load i32, ptr %11, align 4
  %25 = load i32, ptr %12, align 4
  %26 = or i32 %24, %25
  %27 = and i32 %26, 8
  %28 = icmp eq i32 %27, 0
  br i1 %28, label %29, label %35

29:                                               ; preds = %23
  %30 = load ptr, ptr %7, align 8
  call void @tcg_out8(ptr noundef %30, i8 noundef zeroext -59)
  %31 = load i32, ptr %9, align 4
  %32 = and i32 %31, 8
  %33 = icmp ne i32 %32, 0
  %34 = select i1 %33, i32 0, i32 128
  store i32 %34, ptr %13, align 4
  br label %83

35:                                               ; preds = %23, %19
  %36 = load ptr, ptr %7, align 8
  call void @tcg_out8(ptr noundef %36, i8 noundef zeroext -60)
  %37 = load i32, ptr %8, align 4
  %38 = and i32 %37, 65536
  %39 = icmp ne i32 %38, 0
  br i1 %39, label %40, label %41

40:                                               ; preds = %35
  store i32 3, ptr %13, align 4
  br label %57

41:                                               ; preds = %35
  %42 = load i32, ptr %8, align 4
  %43 = and i32 %42, 512
  %44 = icmp ne i32 %43, 0
  br i1 %44, label %45, label %46

45:                                               ; preds = %41
  store i32 2, ptr %13, align 4
  br label %56

46:                                               ; preds = %41
  %47 = load i32, ptr %8, align 4
  %48 = and i32 %47, 256
  %49 = icmp ne i32 %48, 0
  br i1 %49, label %50, label %51

50:                                               ; preds = %46
  store i32 1, ptr %13, align 4
  br label %55

51:                                               ; preds = %46
  br label %52

52:                                               ; preds = %51
  call void @g_assertion_message_expr(ptr noundef null, ptr noundef @.str.51, i32 noundef 681, ptr noundef @__func__.tcg_out_vex_opc, ptr noundef null) #20
  unreachable

53:                                               ; No predecessors!
  br label %54

54:                                               ; preds = %53
  br label %55

55:                                               ; preds = %54, %50
  br label %56

56:                                               ; preds = %55, %45
  br label %57

57:                                               ; preds = %56, %40
  %58 = load i32, ptr %9, align 4
  %59 = and i32 %58, 8
  %60 = icmp ne i32 %59, 0
  %61 = select i1 %60, i32 0, i32 128
  %62 = load i32, ptr %13, align 4
  %63 = or i32 %62, %61
  store i32 %63, ptr %13, align 4
  %64 = load i32, ptr %12, align 4
  %65 = and i32 %64, 8
  %66 = icmp ne i32 %65, 0
  %67 = select i1 %66, i32 0, i32 64
  %68 = load i32, ptr %13, align 4
  %69 = or i32 %68, %67
  store i32 %69, ptr %13, align 4
  %70 = load i32, ptr %11, align 4
  %71 = and i32 %70, 8
  %72 = icmp ne i32 %71, 0
  %73 = select i1 %72, i32 0, i32 32
  %74 = load i32, ptr %13, align 4
  %75 = or i32 %74, %73
  store i32 %75, ptr %13, align 4
  %76 = load ptr, ptr %7, align 8
  %77 = load i32, ptr %13, align 4
  %78 = trunc i32 %77 to i8
  call void @tcg_out8(ptr noundef %76, i8 noundef zeroext %78)
  %79 = load i32, ptr %8, align 4
  %80 = and i32 %79, 4096
  %81 = icmp ne i32 %80, 0
  %82 = select i1 %81, i32 128, i32 0
  store i32 %82, ptr %13, align 4
  br label %83

83:                                               ; preds = %57, %29
  %84 = load i32, ptr %8, align 4
  %85 = and i32 %84, 524288
  %86 = icmp ne i32 %85, 0
  %87 = select i1 %86, i32 4, i32 0
  %88 = load i32, ptr %13, align 4
  %89 = or i32 %88, %87
  store i32 %89, ptr %13, align 4
  %90 = load i32, ptr %8, align 4
  %91 = and i32 %90, 1024
  %92 = icmp ne i32 %91, 0
  br i1 %92, label %93, label %96

93:                                               ; preds = %83
  %94 = load i32, ptr %13, align 4
  %95 = or i32 %94, 1
  store i32 %95, ptr %13, align 4
  br label %112

96:                                               ; preds = %83
  %97 = load i32, ptr %8, align 4
  %98 = and i32 %97, 131072
  %99 = icmp ne i32 %98, 0
  br i1 %99, label %100, label %103

100:                                              ; preds = %96
  %101 = load i32, ptr %13, align 4
  %102 = or i32 %101, 2
  store i32 %102, ptr %13, align 4
  br label %111

103:                                              ; preds = %96
  %104 = load i32, ptr %8, align 4
  %105 = and i32 %104, 262144
  %106 = icmp ne i32 %105, 0
  br i1 %106, label %107, label %110

107:                                              ; preds = %103
  %108 = load i32, ptr %13, align 4
  %109 = or i32 %108, 3
  store i32 %109, ptr %13, align 4
  br label %110

110:                                              ; preds = %107, %103
  br label %111

111:                                              ; preds = %110, %100
  br label %112

112:                                              ; preds = %111, %93
  %113 = load i32, ptr %10, align 4
  %114 = xor i32 %113, -1
  %115 = and i32 %114, 15
  %116 = shl i32 %115, 3
  %117 = load i32, ptr %13, align 4
  %118 = or i32 %117, %116
  store i32 %118, ptr %13, align 4
  %119 = load ptr, ptr %7, align 8
  %120 = load i32, ptr %13, align 4
  %121 = trunc i32 %120 to i8
  call void @tcg_out8(ptr noundef %119, i8 noundef zeroext %121)
  %122 = load ptr, ptr %7, align 8
  %123 = load i32, ptr %8, align 4
  %124 = trunc i32 %123 to i8
  call void @tcg_out8(ptr noundef %122, i8 noundef zeroext %124)
  call void @llvm.lifetime.end.p0(i64 4, ptr %13) #19
  ret void
}