; Function Attrs: nounwind sspstrong uwtable
define internal fastcc void @tcg_out_vex_opc(ptr noundef captures(none) %0, i32 noundef %1, i32 noundef %2, i32 noundef %3, i32 noundef %4, i32 noundef %5) unnamed_addr #0 {
  %7 = and i32 %1, 32768
  %.not = icmp eq i32 %7, 0
  br i1 %.not, label %12, label %8

8:                                                ; preds = %6
  %9 = getelementptr inbounds nuw i8, ptr %0, i64 128
  %10 = load ptr, ptr %9, align 8
  %11 = getelementptr inbounds nuw i8, ptr %10, i64 1
  store ptr %11, ptr %9, align 8
  store i8 101, ptr %10, align 1
  br label %12

12:                                               ; preds = %8, %6
  %13 = and i32 %1, 70400
  %14 = icmp eq i32 %13, 256
  br i1 %14, label %15, label %26

15:                                               ; preds = %12
  %16 = or i32 %5, %4
  %17 = and i32 %16, 8
  %18 = icmp eq i32 %17, 0
  br i1 %18, label %19, label %26

19:                                               ; preds = %15
  %20 = getelementptr inbounds nuw i8, ptr %0, i64 128
  %21 = load ptr, ptr %20, align 8
  %22 = getelementptr inbounds nuw i8, ptr %21, i64 1
  store ptr %22, ptr %20, align 8
  store i8 -59, ptr %21, align 1
  %23 = shl i32 %2, 4
  %24 = and i32 %23, 128
  %25 = xor i32 %24, 128
  br label %52

26:                                               ; preds = %15, %12
  %27 = getelementptr inbounds nuw i8, ptr %0, i64 128
  %28 = load ptr, ptr %27, align 8
  %29 = getelementptr inbounds nuw i8, ptr %28, i64 1
  store ptr %29, ptr %27, align 8
  store i8 -60, ptr %28, align 1
  %30 = and i32 %1, 65536
  %.not33 = icmp eq i32 %30, 0
  br i1 %.not33, label %31, label %36

31:                                               ; preds = %26
  %32 = and i32 %1, 512
  %.not34 = icmp eq i32 %32, 0
  br i1 %.not34, label %33, label %36

33:                                               ; preds = %31
  %34 = and i32 %1, 256
  %.not35 = icmp eq i32 %34, 0
  br i1 %.not35, label %35, label %36

35:                                               ; preds = %33
  tail call void @g_assertion_message_expr(ptr noundef null, ptr noundef nonnull @.str.51, i32 noundef 681, ptr noundef nonnull @__func__.tcg_out_vex_opc, ptr noundef null) #31
  unreachable

36:                                               ; preds = %33, %31, %26
  %.1 = phi i32 [ 3, %26 ], [ 2, %31 ], [ 1, %33 ]
  %37 = shl i32 %2, 4
  %38 = and i32 %37, 128
  %39 = shl i32 %5, 3
  %40 = and i32 %39, 64
  %41 = shl i32 %4, 2
  %42 = and i32 %41, 32
  %43 = or disjoint i32 %42, %38
  %44 = or disjoint i32 %43, %40
  %45 = or disjoint i32 %44, %.1
  %46 = trunc nuw i32 %45 to i8
  %47 = xor i8 %46, -32
  %48 = load ptr, ptr %27, align 8
  %49 = getelementptr inbounds nuw i8, ptr %48, i64 1
  store ptr %49, ptr %27, align 8
  store i8 %47, ptr %48, align 1
  %50 = lshr i32 %1, 5
  %51 = and i32 %50, 128
  br label %52

52:                                               ; preds = %36, %19
  %.0 = phi i32 [ %25, %19 ], [ %51, %36 ]
  %53 = lshr i32 %1, 17
  %54 = and i32 %53, 4
  %55 = or i32 %.0, %54
  %56 = and i32 %1, 1024
  %.not42 = icmp eq i32 %56, 0
  br i1 %.not42, label %59, label %57

57:                                               ; preds = %52
  %58 = or i32 %55, 1
  br label %66

59:                                               ; preds = %52
  %60 = and i32 %1, 131072
  %.not43 = icmp eq i32 %60, 0
  br i1 %.not43, label %63, label %61

61:                                               ; preds = %59
  %62 = or i32 %55, 2
  br label %66

63:                                               ; preds = %59
  %64 = and i32 %1, 262144
  %.not44 = icmp eq i32 %64, 0
  %65 = or i32 %55, 3
  %spec.select = select i1 %.not44, i32 %55, i32 %65
  br label %66

66:                                               ; preds = %63, %61, %57
  %.2 = phi i32 [ %58, %57 ], [ %62, %61 ], [ %spec.select, %63 ]
  %67 = shl i32 %3, 3
  %68 = and i32 %67, 120
  %69 = xor i32 %68, 120
  %70 = or i32 %.2, %69
  %71 = trunc nuw i32 %70 to i8
  %72 = getelementptr inbounds nuw i8, ptr %0, i64 128
  %73 = load ptr, ptr %72, align 8
  %74 = getelementptr inbounds nuw i8, ptr %73, i64 1
  store ptr %74, ptr %72, align 8
  store i8 %71, ptr %73, align 1
  %75 = trunc i32 %1 to i8
  %76 = load ptr, ptr %72, align 8
  %77 = getelementptr inbounds nuw i8, ptr %76, i64 1
  store ptr %77, ptr %72, align 8
  store i8 %75, ptr %76, align 1
  ret void
}